; Function Attrs: nounwind uwtable
define ptr @l_Lean_Server_CancellableT_checkCancelled___rarg___lambda__3(ptr noundef %0, ptr noundef %1, ptr noundef %2, ptr noundef %3, ptr noundef %4) #0 {
  tail call void @lean_inc_heartbeat() #5
  %6 = tail call noalias ptr @mi_malloc_small(i64 noundef 32) #5
  %7 = icmp eq ptr %6, null
  br i1 %7, label %8, label %lean_alloc_closure.exit

8:                                                ; preds = %5
  tail call void @lean_internal_panic_out_of_memory() #6
  unreachable

lean_alloc_closure.exit:                          ; preds = %5
  %9 = getelementptr inbounds nuw i8, ptr %6, i64 4
  store i32 1, ptr %6, align 4, !tbaa !8
  store i32 -184549344, ptr %9, align 4
  %10 = getelementptr inbounds nuw i8, ptr %6, i64 8
  store ptr @l_Lean_Server_RequestCancellationToken_wasCancelledByCancelRequest___boxed, ptr %10, align 8, !tbaa !4
  %11 = getelementptr inbounds nuw i8, ptr %6, i64 16
  store i16 2, ptr %11, align 8, !tbaa !12
  %12 = getelementptr inbounds nuw i8, ptr %6, i64 18
  store i16 1, ptr %12, align 2, !tbaa !12
  %13 = getelementptr inbounds nuw i8, ptr %6, i64 24
  store ptr %4, ptr %13, align 8, !tbaa !4
  %14 = tail call ptr @lean_apply_2(ptr noundef %0, ptr noundef nonnull inttoptr (i64 1 to ptr), ptr noundef nonnull %6) #5
  %15 = getelementptr inbounds nuw i8, ptr %1, i64 8
  %16 = load ptr, ptr %15, align 8, !tbaa !4
  %17 = ptrtoint ptr %16 to i64
  %18 = and i64 %17, 1
  %.not = icmp eq i64 %18, 0
  br i1 %.not, label %19, label %lean_inc.exit28

19:                                               ; preds = %lean_alloc_closure.exit
  %.val.i = load i32, ptr %16, align 4, !tbaa !8
  %20 = icmp sgt i32 %.val.i, 0
  br i1 %20, label %21, label %23, !prof !11

21:                                               ; preds = %19
  %22 = add nuw i32 %.val.i, 1
  store i32 %22, ptr %16, align 4, !tbaa !8
  br label %lean_inc.exit28

23:                                               ; preds = %19
  %.not.i32 = icmp eq i32 %.val.i, 0
  br i1 %.not.i32, label %lean_inc.exit28, label %24

24:                                               ; preds = %23
  tail call void @lean_inc_ref_cold(ptr noundef nonnull %16) #5
  br label %lean_inc.exit28

lean_inc.exit28:                                  ; preds = %24, %23, %21, %lean_alloc_closure.exit
  %25 = ptrtoint ptr %1 to i64
  %26 = and i64 %25, 1
  %.not41 = icmp eq i64 %26, 0
  br i1 %.not41, label %27, label %lean_dec.exit29

27:                                               ; preds = %lean_inc.exit28
  %28 = load i32, ptr %1, align 4, !tbaa !8
  %29 = icmp sgt i32 %28, 1
  br i1 %29, label %30, label %32, !prof !11

30:                                               ; preds = %27
  %31 = add nsw i32 %28, -1
  store i32 %31, ptr %1, align 4, !tbaa !8
  br label %lean_dec.exit29

32:                                               ; preds = %27
  %.not.i = icmp eq i32 %28, 0
  br i1 %.not.i, label %lean_dec.exit29, label %33

33:                                               ; preds = %32
  tail call void @lean_dec_ref_cold(ptr noundef nonnull %1) #5
  br label %lean_dec.exit29

lean_dec.exit29:                                  ; preds = %33, %32, %30, %lean_inc.exit28
  %34 = getelementptr inbounds nuw i8, ptr %16, i64 8
  %35 = load ptr, ptr %34, align 8, !tbaa !4
  %36 = ptrtoint ptr %35 to i64
  %37 = and i64 %36, 1
  %.not42 = icmp eq i64 %37, 0
  br i1 %.not42, label %38, label %lean_inc.exit27

38:                                               ; preds = %lean_dec.exit29
  %.val.i33 = load i32, ptr %35, align 4, !tbaa !8
  %39 = icmp sgt i32 %.val.i33, 0
  br i1 %39, label %40, label %42, !prof !11

40:                                               ; preds = %38
  %41 = add nuw i32 %.val.i33, 1
  store i32 %41, ptr %35, align 4, !tbaa !8
  br label %lean_inc.exit27

42:                                               ; preds = %38
  %.not.i34 = icmp eq i32 %.val.i33, 0
  br i1 %.not.i34, label %lean_inc.exit27, label %43

43:                                               ; preds = %42
  tail call void @lean_inc_ref_cold(ptr noundef nonnull %35) #5
  br label %lean_inc.exit27

lean_inc.exit27:                                  ; preds = %43, %42, %40, %lean_dec.exit29
  br i1 %.not, label %44, label %lean_dec.exit

44:                                               ; preds = %lean_inc.exit27
  %45 = load i32, ptr %16, align 4, !tbaa !8
  %46 = icmp sgt i32 %45, 1
  br i1 %46, label %47, label %49, !prof !11

47:                                               ; preds = %44
  %48 = add nsw i32 %45, -1
  store i32 %48, ptr %16, align 4, !tbaa !8
  br label %lean_dec.exit

49:                                               ; preds = %44
  %.not.i30 = icmp eq i32 %45, 0
  br i1 %.not.i30, label %lean_dec.exit, label %50

50:                                               ; preds = %49
  tail call void @lean_dec_ref_cold(ptr noundef nonnull %16) #5
  br label %lean_dec.exit

lean_dec.exit:                                    ; preds = %50, %49, %47, %lean_inc.exit27
  %51 = load ptr, ptr @l_Lean_Server_CancellableT_checkCancelled___rarg___lambda__3___closed__1, align 8, !tbaa !4
  %52 = tail call ptr @lean_apply_4(ptr noundef %35, ptr noundef nonnull inttoptr (i64 1 to ptr), ptr noundef nonnull inttoptr (i64 1 to ptr), ptr noundef %51, ptr noundef %14) #5
  tail call void @lean_inc_heartbeat() #5
  %53 = tail call noalias ptr @mi_malloc_small(i64 noundef 32) #5
  %54 = icmp eq ptr %53, null
  br i1 %54, label %55, label %lean_alloc_closure.exit36

55:                                               ; preds = %lean_dec.exit
  tail call void @lean_internal_panic_out_of_memory() #6
  unreachable

lean_alloc_closure.exit36:                        ; preds = %lean_dec.exit
  %56 = getelementptr inbounds nuw i8, ptr %53, i64 4
  store i32 1, ptr %53, align 4, !tbaa !8
  store i32 -184549344, ptr %56, align 4
  %57 = getelementptr inbounds nuw i8, ptr %53, i64 8
  store ptr @l_Lean_Server_CancellableT_checkCancelled___rarg___lambda__2___boxed, ptr %57, align 8, !tbaa !4
  %58 = getelementptr inbounds nuw i8, ptr %53, i64 16
  store i16 2, ptr %58, align 8, !tbaa !12
  %59 = getelementptr inbounds nuw i8, ptr %53, i64 18
  store i16 1, ptr %59, align 2, !tbaa !12
  %60 = getelementptr inbounds nuw i8, ptr %53, i64 24
  store ptr %2, ptr %60, align 8, !tbaa !4
  %61 = getelementptr inbounds nuw i8, ptr %3, i64 16
  %62 = load ptr, ptr %61, align 8, !tbaa !4
  %63 = ptrtoint ptr %62 to i64
  %64 = and i64 %63, 1
  %.not43 = icmp eq i64 %64, 0
  br i1 %.not43, label %65, label %lean_inc.exit

65:                                               ; preds = %lean_alloc_closure.exit36
  %.val.i37 = load i32, ptr %62, align 4, !tbaa !8
  %66 = icmp sgt i32 %.val.i37, 0
  br i1 %66, label %67, label %69, !prof !11

67:                                               ; preds = %65
  %68 = add nuw i32 %.val.i37, 1
  store i32 %68, ptr %62, align 4, !tbaa !8
  br label %lean_inc.exit

69:                                               ; preds = %65
  %.not.i38 = icmp eq i32 %.val.i37, 0
  br i1 %.not.i38, label %lean_inc.exit, label %70

70:                                               ; preds = %69
  tail call void @lean_inc_ref_cold(ptr noundef nonnull %62) #5
  br label %lean_inc.exit

lean_inc.exit:                                    ; preds = %70, %69, %67, %lean_alloc_closure.exit36
  tail call void @lean_inc_heartbeat() #5
  %71 = tail call noalias ptr @mi_malloc_small(i64 noundef 56) #5
  %72 = icmp eq ptr %71, null
  br i1 %72, label %73, label %lean_alloc_closure.exit40

73:                                               ; preds = %lean_inc.exit
  tail call void @lean_internal_panic_out_of_memory() #6
  unreachable

lean_alloc_closure.exit40:                        ; preds = %lean_inc.exit
  %74 = getelementptr inbounds nuw i8, ptr %71, i64 4
  store i32 1, ptr %71, align 4, !tbaa !8
  store i32 -184549320, ptr %74, align 4
  %75 = getelementptr inbounds nuw i8, ptr %71, i64 8
  store ptr @l_ExceptT_bindCont___at_Lean_Server_CancellableT_checkCancelled___spec__1___rarg, ptr %75, align 8, !tbaa !4
  %76 = getelementptr inbounds nuw i8, ptr %71, i64 16
  store i16 5, ptr %76, align 8, !tbaa !12
  %77 = getelementptr inbounds nuw i8, ptr %71, i64 18
  store i16 4, ptr %77, align 2, !tbaa !12
  %78 = getelementptr inbounds nuw i8, ptr %71, i64 24
  store ptr %3, ptr %78, align 8, !tbaa !4
  %79 = getelementptr inbounds nuw i8, ptr %71, i64 32
  store ptr inttoptr (i64 1 to ptr), ptr %79, align 8, !tbaa !4
  %80 = getelementptr inbounds nuw i8, ptr %71, i64 40
  store ptr inttoptr (i64 1 to ptr), ptr %80, align 8, !tbaa !4
  %81 = getelementptr inbounds nuw i8, ptr %71, i64 48
  store ptr %53, ptr %81, align 8, !tbaa !4
  %82 = tail call ptr @lean_apply_4(ptr noundef %62, ptr noundef nonnull inttoptr (i64 1 to ptr), ptr noundef nonnull inttoptr (i64 1 to ptr), ptr noundef %52, ptr noundef nonnull %71) #5
  ret ptr %82
}